target datalayout = "e-m:e-p270:32:32-p271:32:32-p272:64:64-i64:64-i128:128-f80:128-n8:16:32:64-S128"
target triple = "x86_64-pc-linux-gnu"

; Function Attrs: inlinehint nounwind uwtable
define internal i32 @Abc_Var2Lit(i32 noundef %0, i32 noundef %1) #1 {
  %3 = alloca i32, align 4
  %4 = alloca i32, align 4
  store i32 %0, ptr %3, align 4, !tbaa !8
  store i32 %1, ptr %4, align 4, !tbaa !8
  %5 = load i32, ptr %3, align 4, !tbaa !8
  %6 = load i32, ptr %3, align 4, !tbaa !8
  %7 = add nsw i32 %5, %6
  %8 = load i32, ptr %4, align 4, !tbaa !8
  %9 = add nsw i32 %7, %8
  ret i32 %9
}

; Function Attrs: nounwind uwtable
define ptr @Gia_ManCollectLiterals(i32 noundef %0) #0 {
  %2 = alloca i32, align 4
  %3 = alloca i32, align 4
  %4 = alloca ptr, align 8
  store i32 %0, ptr %2, align 4, !tbaa !8
  call void @llvm.lifetime.start.p0(i64 4, ptr %3) #12
  call void @llvm.lifetime.start.p0(i64 8, ptr %4) #12
  %5 = load i32, ptr %2, align 4, !tbaa !8
  %6 = sext i32 %5 to i64
  %7 = call noalias ptr @calloc(i64 noundef %6, i64 noundef 4) #16
  store ptr %7, ptr %4, align 8, !tbaa !10
  store i32 0, ptr %3, align 4, !tbaa !8
  br label %8

8:                                                ; preds = %20, %1
  %9 = load i32, ptr %3, align 4, !tbaa !8
  %10 = load i32, ptr %2, align 4, !tbaa !8
  %11 = icmp slt i32 %9, %10
  br i1 %11, label %12, label %23

12:                                               ; preds = %8
  %13 = load i32, ptr %3, align 4, !tbaa !8
  %14 = add nsw i32 %13, 1
  %15 = call i32 @Abc_Var2Lit(i32 noundef %14, i32 noundef 0)
  %16 = load ptr, ptr %4, align 8, !tbaa !10
  %17 = load i32, ptr %3, align 4, !tbaa !8
  %18 = sext i32 %17 to i64
  %19 = getelementptr inbounds i32, ptr %16, i64 %18
  store i32 %15, ptr %19, align 4, !tbaa !8
  br label %20

20:                                               ; preds = %12
  %21 = load i32, ptr %3, align 4, !tbaa !8
  %22 = add nsw i32 %21, 1
  store i32 %22, ptr %3, align 4, !tbaa !8
  br label %8, !llvm.loop !74

23:                                               ; preds = %8
  %24 = load ptr, ptr %4, align 8, !tbaa !10
  call void @llvm.lifetime.end.p0(i64 8, ptr %4) #12
  call void @llvm.lifetime.end.p0(i64 4, ptr %3) #12
  ret ptr %24
}