; Function Attrs: nofree nounwind memory(write, argmem: none, inaccessiblemem: readwrite) uwtable
define noalias noundef ptr @Gia_ManCollectLiterals(i32 noundef %0) local_unnamed_addr #9 {
  %2 = sext i32 %0 to i64
  %3 = tail call noalias ptr @calloc(i64 noundef %2, i64 noundef 4) #28
  %4 = icmp sgt i32 %0, 0
  br i1 %4, label %.lr.ph.preheader, label %._crit_edge

.lr.ph.preheader:                                 ; preds = %1
  %wide.trip.count = zext nneg i32 %0 to i64
  br label %.lr.ph

.lr.ph:                                           ; preds = %.lr.ph.preheader, %.lr.ph
  %indvars.iv = phi i64 [ 0, %.lr.ph.preheader ], [ %indvars.iv.next, %.lr.ph ]
  %indvars.iv.next = add nuw nsw i64 %indvars.iv, 1
  %5 = getelementptr inbounds nuw i32, ptr %3, i64 %indvars.iv
  %indvars.iv.next.tr = trunc i64 %indvars.iv.next to i32
  %6 = shl i32 %indvars.iv.next.tr, 1
  store i32 %6, ptr %5, align 4, !tbaa !11
  %exitcond.not = icmp eq i64 %indvars.iv.next, %wide.trip.count
  br i1 %exitcond.not, label %._crit_edge, label %.lr.ph, !llvm.loop !67

._crit_edge:                                      ; preds = %.lr.ph, %1
  ret ptr %3
}